target datalayout = "e-m:e-p270:32:32-p271:32:32-p272:64:64-i64:64-i128:128-f80:128-n8:16:32:64-S128"
target triple = "x86_64-pc-linux-gnu"

%struct.DES_ks = type { [16 x %union.anon] }
%union.anon = type { [2 x i32] }

@.str.24 = private unnamed_addr constant [26 x i8] c"../openssl/test/destest.c\00", align 1
@cfb_key = internal global [8 x i8] c"\01#Eg\89\AB\CD\EF", align 1
@cfb_tmp = internal global [8 x i8] zeroinitializer, align 1
@cfb_iv = internal global [8 x i8] c"\124Vx\90\AB\CD\EF", align 1
@plain = internal global [24 x i8] c"Now is the time for all ", align 16
@cfb_buf1 = internal global [40 x i8] zeroinitializer, align 16
@.str.46 = private unnamed_addr constant [11 x i8] c"cfb_cipher\00", align 1
@.str.47 = private unnamed_addr constant [9 x i8] c"cfb_buf1\00", align 1
@cfb_buf2 = internal global [40 x i8] zeroinitializer, align 16
@.str.48 = private unnamed_addr constant [6 x i8] c"plain\00", align 1
@.str.49 = private unnamed_addr constant [9 x i8] c"cfb_buf2\00", align 1

; Function Attrs: nounwind uwtable
define internal i32 @cfb_test(i32 noundef %0, ptr noundef %1) #0 {
  %3 = alloca i32, align 4
  %4 = alloca i32, align 4
  %5 = alloca ptr, align 8
  %6 = alloca %struct.DES_ks, align 4
  %7 = alloca i32, align 4
  store i32 %0, ptr %4, align 4, !tbaa !4
  store ptr %1, ptr %5, align 8, !tbaa !22
  call void @llvm.lifetime.start.p0(i64 128, ptr %6) #6
  %8 = call i32 @DES_set_key_checked(ptr noundef @cfb_key, ptr noundef %6)
  call void @llvm.memcpy.p0.p0.i64(ptr align 1 @cfb_tmp, ptr align 1 @cfb_iv, i64 8, i1 false)
  %9 = load i32, ptr %4, align 4, !tbaa !4
  call void @DES_cfb_encrypt(ptr noundef @plain, ptr noundef @cfb_buf1, i32 noundef %9, i64 noundef 24, ptr noundef %6, ptr noundef @cfb_tmp, i32 noundef 1)
  %10 = load ptr, ptr %5, align 8, !tbaa !22
  %11 = call i32 @test_mem_eq(ptr noundef @.str.24, i32 noundef 525, ptr noundef @.str.46, ptr noundef @.str.47, ptr noundef %10, i64 noundef 24, ptr noundef @cfb_buf1, i64 noundef 24)
  %12 = icmp ne i32 %11, 0
  br i1 %12, label %14, label %13

13:                                               ; preds = %2
  store i32 0, ptr %3, align 4
  store i32 1, ptr %7, align 4
  br label %17

14:                                               ; preds = %2
  call void @llvm.memcpy.p0.p0.i64(ptr align 1 @cfb_tmp, ptr align 1 @cfb_iv, i64 8, i1 false)
  %15 = load i32, ptr %4, align 4, !tbaa !4
  call void @DES_cfb_encrypt(ptr noundef @cfb_buf1, ptr noundef @cfb_buf2, i32 noundef %15, i64 noundef 24, ptr noundef %6, ptr noundef @cfb_tmp, i32 noundef 0)
  %16 = call i32 @test_mem_eq(ptr noundef @.str.24, i32 noundef 530, ptr noundef @.str.48, ptr noundef @.str.49, ptr noundef @plain, i64 noundef 24, ptr noundef @cfb_buf2, i64 noundef 24)
  store i32 %16, ptr %3, align 4
  store i32 1, ptr %7, align 4
  br label %17

17:                                               ; preds = %14, %13
  call void @llvm.lifetime.end.p0(i64 128, ptr %6) #6
  %18 = load i32, ptr %3, align 4
  ret i32 %18
}