; Function Attrs: nounwind uwtable
define internal fastcc i32 @cfb_test(i32 noundef range(i32 8, 65) %0, ptr noundef %1) unnamed_addr #0 {
  %3 = alloca %struct.DES_ks, align 4
  call void @llvm.lifetime.start.p0(i64 128, ptr nonnull %3) #6
  %4 = call i32 @DES_set_key_checked(ptr noundef nonnull @cfb_key, ptr noundef nonnull %3) #6
  store i64 -1167088091436534766, ptr @cfb_tmp, align 8
  call void @DES_cfb_encrypt(ptr noundef nonnull @plain, ptr noundef nonnull @cfb_buf1, i32 noundef %0, i64 noundef 24, ptr noundef nonnull %3, ptr noundef nonnull @cfb_tmp, i32 noundef 1) #6
  %5 = call i32 @test_mem_eq(ptr noundef nonnull @.str.24, i32 noundef 525, ptr noundef nonnull @.str.46, ptr noundef nonnull @.str.47, ptr noundef %1, i64 noundef 24, ptr noundef nonnull @cfb_buf1, i64 noundef 24) #6
  %.not = icmp eq i32 %5, 0
  br i1 %.not, label %8, label %6

6:                                                ; preds = %2
  store i64 -1167088091436534766, ptr @cfb_tmp, align 8
  call void @DES_cfb_encrypt(ptr noundef nonnull @cfb_buf1, ptr noundef nonnull @cfb_buf2, i32 noundef %0, i64 noundef 24, ptr noundef nonnull %3, ptr noundef nonnull @cfb_tmp, i32 noundef 0) #6
  %7 = call i32 @test_mem_eq(ptr noundef nonnull @.str.24, i32 noundef 530, ptr noundef nonnull @.str.48, ptr noundef nonnull @.str.49, ptr noundef nonnull @plain, i64 noundef 24, ptr noundef nonnull @cfb_buf2, i64 noundef 24) #6
  br label %8

8:                                                ; preds = %2, %6
  %.0 = phi i32 [ %7, %6 ], [ 0, %2 ]
  call void @llvm.lifetime.end.p0(i64 128, ptr nonnull %3) #6
  ret i32 %.0
}